; Function Attrs: nounwind uwtable
define internal fastcc void @xdot_color_stop(ptr noundef nonnull captures(none) %0, double noundef %1, ptr noundef readonly captures(none) %2) unnamed_addr #0 {
  tail call void (ptr, ptr, ...) @agxbprint(ptr noundef nonnull %0, ptr noundef nonnull @.str.49, double noundef %1)
  %4 = getelementptr i8, ptr %0, i64 31
  %.val.i.i = load i8, ptr %4, align 1, !tbaa !37
  %.not.i.i = icmp eq i8 %.val.i.i, -1
  br i1 %.not.i.i, label %6, label %agxbstart.exit.i

agxbstart.exit.i:                                 ; preds = %3
  %5 = zext i8 %.val.i.i to i64
  br label %agxblen.exit.i

6:                                                ; preds = %3
  %7 = load ptr, ptr %0, align 8, !tbaa !37
  %8 = getelementptr inbounds nuw i8, ptr %0, i64 8
  %9 = load i64, ptr %8, align 8, !tbaa !37
  br label %agxblen.exit.i

agxblen.exit.i:                                   ; preds = %6, %agxbstart.exit.i
  %10 = phi ptr [ %0, %agxbstart.exit.i ], [ %7, %6 ]
  %.0.i.i = phi i64 [ %5, %agxbstart.exit.i ], [ %9, %6 ]
  br label %11

11:                                               ; preds = %13, %agxblen.exit.i
  %.0.in.i = phi i64 [ %.0.i.i, %agxblen.exit.i ], [ %.0.i, %13 ]
  %12 = icmp eq i64 %.0.in.i, 0
  br i1 %12, label %agxbuf_trim_zeros.exit, label %13

13:                                               ; preds = %11
  %.0.i = add i64 %.0.in.i, -1
  %14 = getelementptr inbounds nuw i8, ptr %10, i64 %.0.i
  %15 = load i8, ptr %14, align 1, !tbaa !37
  %16 = icmp eq i8 %15, 46
  br i1 %16, label %17, label %11

17:                                               ; preds = %13
  br i1 %.not.i.i, label %20, label %18

18:                                               ; preds = %17
  %19 = zext i8 %.val.i.i to i64
  br label %agxblen.exit38.i

20:                                               ; preds = %17
  %21 = getelementptr inbounds nuw i8, ptr %0, i64 8
  %22 = load i64, ptr %21, align 8, !tbaa !37
  br label %agxblen.exit38.i

agxblen.exit38.i:                                 ; preds = %20, %18
  %.0.i37.i = phi i64 [ %19, %18 ], [ %22, %20 ]
  %23 = getelementptr inbounds nuw i8, ptr %0, i64 8
  br label %24

24:                                               ; preds = %36, %agxblen.exit38.i
  %.val.i3951.i = phi i8 [ %.val.i.i, %agxblen.exit38.i ], [ %.val.i39.i, %36 ]
  %.val32.i = phi i8 [ %.val.i.i, %agxblen.exit38.i ], [ %.val3250.i, %36 ]
  %.028.in.i = phi i64 [ %.0.i37.i, %agxblen.exit38.i ], [ %.028.i, %36 ]
  %.028.i = add i64 %.028.in.i, -1
  %25 = icmp eq i64 %.028.in.i, %.0.in.i
  br i1 %25, label %30, label %26

26:                                               ; preds = %24
  %27 = getelementptr inbounds nuw i8, ptr %10, i64 %.028.i
  %28 = load i8, ptr %27, align 1, !tbaa !37
  %29 = icmp eq i8 %28, 48
  br i1 %29, label %30, label %agxbuf_trim_zeros.exit

30:                                               ; preds = %26, %24
  %.not43.i = icmp eq i8 %.val32.i, -1
  br i1 %.not43.i, label %33, label %31

31:                                               ; preds = %30
  %32 = add i8 %.val32.i, -1
  store i8 %32, ptr %4, align 1, !tbaa !37
  br label %36

33:                                               ; preds = %30
  %34 = load i64, ptr %23, align 8, !tbaa !37
  %35 = add i64 %34, -1
  store i64 %35, ptr %23, align 8, !tbaa !37
  br label %36

36:                                               ; preds = %33, %31
  %.val.i39.i = phi i8 [ %.val.i3951.i, %33 ], [ %32, %31 ]
  %.val3250.i = phi i8 [ -1, %33 ], [ %32, %31 ]
  br i1 %25, label %.critedge.i, label %24

.critedge.i:                                      ; preds = %36
  %.not.i40.i = icmp eq i8 %.val.i39.i, -1
  br i1 %.not.i40.i, label %39, label %37

37:                                               ; preds = %.critedge.i
  %38 = zext i8 %.val.i39.i to i64
  br label %agxblen.exit42.i

39:                                               ; preds = %.critedge.i
  %40 = load i64, ptr %23, align 8, !tbaa !37
  br label %agxblen.exit42.i

agxblen.exit42.i:                                 ; preds = %39, %37
  %.0.i41.i = phi i64 [ %38, %37 ], [ %40, %39 ]
  %41 = icmp ult i64 %.0.i41.i, 2
  br i1 %41, label %agxbuf_trim_zeros.exit, label %42

42:                                               ; preds = %agxblen.exit42.i
  %43 = getelementptr i8, ptr %10, i64 %.0.i41.i
  %44 = getelementptr i8, ptr %43, i64 -2
  %45 = load i8, ptr %44, align 1, !tbaa !37
  %.not.i = icmp eq i8 %45, 45
  br i1 %.not.i, label %46, label %agxbuf_trim_zeros.exit

46:                                               ; preds = %42
  %47 = getelementptr i8, ptr %43, i64 -1
  %48 = load i8, ptr %47, align 1, !tbaa !37
  %.not31.i = icmp eq i8 %48, 48
  br i1 %.not31.i, label %49, label %agxbuf_trim_zeros.exit

49:                                               ; preds = %46
  store i8 48, ptr %44, align 1, !tbaa !37
  %.val.i = load i8, ptr %4, align 1, !tbaa !37
  %.not44.i = icmp eq i8 %.val.i, -1
  br i1 %.not44.i, label %agxbuf_trim_zeros.exit.thread, label %50

50:                                               ; preds = %49
  %51 = add i8 %.val.i, -1
  store i8 %51, ptr %4, align 1, !tbaa !37
  br label %agxbuf_trim_zeros.exit

agxbuf_trim_zeros.exit.thread:                    ; preds = %49
  %52 = load i64, ptr %23, align 8, !tbaa !37
  %53 = add i64 %52, -1
  store i64 %53, ptr %23, align 8, !tbaa !37
  br label %55

agxbuf_trim_zeros.exit:                           ; preds = %11, %26, %agxblen.exit42.i, %42, %46, %50
  %.val.i.i6 = phi i8 [ %51, %50 ], [ %.val.i39.i, %46 ], [ %.val.i39.i, %42 ], [ %.val.i39.i, %agxblen.exit42.i ], [ %.val.i3951.i, %26 ], [ %.val.i.i, %11 ]
  %.not.i.i7 = icmp eq i8 %.val.i.i6, -1
  br i1 %.not.i.i7, label %55, label %agxblen.exit.i8

agxblen.exit.i8:                                  ; preds = %agxbuf_trim_zeros.exit
  %54 = zext i8 %.val.i.i6 to i64
  br label %agxbsizeof.exit.i

55:                                               ; preds = %agxbuf_trim_zeros.exit.thread, %agxbuf_trim_zeros.exit
  %56 = getelementptr inbounds nuw i8, ptr %0, i64 8
  %57 = load i64, ptr %56, align 8, !tbaa !37
  %58 = getelementptr inbounds nuw i8, ptr %0, i64 16
  %59 = load i64, ptr %58, align 8, !tbaa !37
  br label %agxbsizeof.exit.i

agxbsizeof.exit.i:                                ; preds = %55, %agxblen.exit.i8
  %.val.i.i617 = phi i8 [ -1, %55 ], [ %.val.i.i6, %agxblen.exit.i8 ]
  %.0.i20.i = phi i64 [ %57, %55 ], [ %54, %agxblen.exit.i8 ]
  %.0.i14.i = phi i64 [ %59, %55 ], [ 31, %agxblen.exit.i8 ]
  %.not.i9 = icmp ult i64 %.0.i20.i, %.0.i14.i
  br i1 %.not.i9, label %61, label %60

60:                                               ; preds = %agxbsizeof.exit.i
  tail call fastcc void @agxbmore(ptr noundef nonnull %0, i64 noundef 1)
  %.val.i15.pre.i = load i8, ptr %4, align 1, !tbaa !37
  br label %61

61:                                               ; preds = %60, %agxbsizeof.exit.i
  %.val.i15.i = phi i8 [ %.val.i15.pre.i, %60 ], [ %.val.i.i617, %agxbsizeof.exit.i ]
  %.not.i16.i = icmp eq i8 %.val.i15.i, -1
  br i1 %.not.i16.i, label %67, label %62

62:                                               ; preds = %61
  %63 = zext i8 %.val.i15.i to i64
  %64 = getelementptr inbounds nuw [31 x i8], ptr %0, i64 0, i64 %63
  store i8 32, ptr %64, align 1, !tbaa !37
  %65 = load i8, ptr %4, align 1, !tbaa !37
  %66 = add i8 %65, 1
  store i8 %66, ptr %4, align 1, !tbaa !37
  br label %agxbputc.exit

67:                                               ; preds = %61
  %68 = getelementptr inbounds nuw i8, ptr %0, i64 8
  %69 = load i64, ptr %68, align 8, !tbaa !37
  %70 = load ptr, ptr %0, align 8, !tbaa !37
  %71 = getelementptr inbounds nuw i8, ptr %70, i64 %69
  store i8 32, ptr %71, align 1, !tbaa !37
  %72 = load i64, ptr %68, align 8, !tbaa !37
  %73 = add i64 %72, 1
  store i64 %73, ptr %68, align 8, !tbaa !37
  br label %agxbputc.exit

agxbputc.exit:                                    ; preds = %62, %67
  %74 = getelementptr inbounds nuw i8, ptr %2, i64 3
  %75 = load i8, ptr %74, align 1, !tbaa !37
  %76 = icmp eq i8 %75, -1
  br i1 %76, label %77, label %86

77:                                               ; preds = %agxbputc.exit
  %78 = load i8, ptr %2, align 1, !tbaa !37
  %79 = zext i8 %78 to i32
  %80 = getelementptr inbounds nuw i8, ptr %2, i64 1
  %81 = load i8, ptr %80, align 1, !tbaa !37
  %82 = zext i8 %81 to i32
  %83 = getelementptr inbounds nuw i8, ptr %2, i64 2
  %84 = load i8, ptr %83, align 1, !tbaa !37
  %85 = zext i8 %84 to i32
  tail call void (ptr, ptr, ...) @agxbprint(ptr noundef nonnull %0, ptr noundef nonnull @.str.35, ptr noundef nonnull @.str.1, i64 noundef 7, i32 noundef %79, i32 noundef %82, i32 noundef %85)
  br label %xdot_str_color_xbuf.exit

86:                                               ; preds = %agxbputc.exit
  %87 = zext i8 %75 to i32
  %88 = load i8, ptr %2, align 1, !tbaa !37
  %89 = zext i8 %88 to i32
  %90 = getelementptr inbounds nuw i8, ptr %2, i64 1
  %91 = load i8, ptr %90, align 1, !tbaa !37
  %92 = zext i8 %91 to i32
  %93 = getelementptr inbounds nuw i8, ptr %2, i64 2
  %94 = load i8, ptr %93, align 1, !tbaa !37
  %95 = zext i8 %94 to i32
  tail call void (ptr, ptr, ...) @agxbprint(ptr noundef nonnull %0, ptr noundef nonnull @.str.36, ptr noundef nonnull @.str.1, i64 noundef 9, i32 noundef %89, i32 noundef %92, i32 noundef %95, i32 noundef %87)
  br label %xdot_str_color_xbuf.exit

xdot_str_color_xbuf.exit:                         ; preds = %77, %86
  ret void
}